(lp0
S'165916420'
p1
aI391248163
aI1620522306
aI227346970
aI381595486
aI218499746
aI780899780
aI67696468
aI150572752
aI253903439
aI1228656578
aI1082823326
aI346173967
aI950239598
aI515377526
aI80545490
aI489953456
aI493773801
aI384500220
aI48676927
aI195012422
aI82913340
aI270057822
aI477902283
aI17559946
aI223536110
aI218499746
aI290555237
aI230141598
aI50373757
aI306239505
aI271481006
aI989675898
aI312661405
aI1099393099
aI258068927
aI257538365
aI355063177
aI20579141
aI59084576
aI782058541
aI1926741578
aI84653539
aI2168551251
aI1636049874
aI1191555732
aI631553005
aI782144894
aI218499746
aI579296161
aI217414652
aI220475149
aI85151405
aI183217567
aI73978395
aI1464258860
aI2191682453
aI194508284
aI1118789334
aI380257764
aI1008968916
aI323285392
aI419008875
aI941365410
aI1596175212
aI359427217
aI282465962
aI1144961635
aI102403152
aI264782467
aI969732426
aI190801607
aI535243895
aI517701309
aI256040198
aI153768978
aI270316879
aI106941408
aI436040716
aI261189647
aI97523390
aI1469513492
aI863362033
aI180080326
aI212300193
aI178421518
aI1415469762
aI468841212
aI550844594
aI277542783
aI84193472
aI921283075
aI949998067
aI115289865
aI197825799
aI2238376747
aI2210756520
aI2236754647
aI548883927
aI115461582
aI308107141
aI27397390
aI88954535
aI487964652
aI602621397
aI1316654431
aI1667585274
aI2180101526
aI772104919
aI2181107971
aI1523152640
aI1010893789
aI363618728
aI223469510
aI562042281
aI2180005938
aI339397038
aI28076939
aI2176924900
aI301458256
aI250890935
aI1971685100
aI353074469
aI362741367
aI171500143
aI941970512
aI90917880
aI578787218
aI1142312972
aI2169441467
aI745244228
aI465700234
aI312952750
aI1673408016
aI191224277
aI1008148020
aI748142767
aI1635349057
aI155629354
aI20588412
aI851737308
aI306239505
aI958273968
aI1295813431
aI358072379
aI1678021958
aI1306956674
aI588331828
aI585052934
aI546922818
aI570819052
aI846162600
aI578629152
aI611922310
aI831153788
aI464850976
aI133445113
aI711794159
aI1216162531
aI458622283
aI291577389
aI430149361
aI1599185022
aI125103625
aI357776514
aI56340704
aI303431503
aI273337521
aI277195342
aI453229784
aI805407073
aI247264634
aI90763411
aI206679080
aI1142161111
aI289291773
aI301010345
aI175073842
aI89731584
aI267284987
aI2195769594
aI309592847
aI144088012
aI528054144
aI1341578353
aI625990466
aI234732326
aI2192708648
aI427276146
aI115474937
aI251589479
aI69227791
aI413333804
aI370222457
aI287810251
aI1467383324
aI300197003
aI1946356736
aI917534216
aI251829373
aI185341186
aI219919859
aI97523390
aI278220979
aI1427660016
aI372809166
aI242514929
aI231050330
aI143943845
aI316476860
aI267076661
aI2151086551
aI862552860
aI364846101
aI59809665
aI406097898
aI955419678
aI1723309807
aI2191008755
aI54314774
aI308303862
aI807062432
aI308107141
aI1039696081
aI396227452
aI811423441
aI1630239456
aI1976219270
aI370181199
aI6305462
aI955384549
aI224468467
aI1889006924
aI172850135
aI367273555
aI2174933161
aI235326679
aI991782205
aI166706068
aI553586295
aI302495603
aI506399162
aI2242660422
aI2221721837
aI461259599
aI453944839
aI1283294478
aI419705781
aI202326688
aI193359572
aI517990581
aI558796643
aI212866780
aI388456815
aI1103417286
aI735582588
aI370165923
aI410748931
aI511632970
aI631415636
aI1286634036
aI2246063462
aI1581284964
aI629967756
aI2245336518
aI1147439102
aI31408654
aI398174569
aI1685757522
aI363111719
aI304646709
aI2151545679
aI1897906512
aI397020953
aI754675910
aI223032384
aI279723982
aI388412770
aI1553433120
aI1617884742
aI831087792
aI296262810
aI470573792
aI703333250
aI419008875
aI1566261738
aI1586910313
aI353823151
aI1625728344
aI633189184
aI300958161
aI1342704229
aI1483553294
aI932621888
aI308107141
aI301458256
aI1962948570
aI1729018136
aI930318636
aI399085593
aI373240440
aI374210613
aI1422906216
aI1638685543
aI331526382
aI197010938
aI370181199
aI290053283
aI745971144
aI392092413
aI856584486
aI201874346
aI70688873
aI1260651541
aI349144491
aI14398617
aI337203982
aI579264523
aI1137515796
aI449772987
aI2154560281
aI224089333
aI2191541650
aI254703223
aI498817723
aI2218581318
aI197586292
aI399682118
aI609360797
aI90459821
aI180677930
aI2190837691
aI1865369551
aI887186437
aI1691722572
aI106003008
aI471231025
aI218482621
aI474745424
aI1328414354
aI953293784
aI2231656642
aI588230194
aI283714980
aI703942654
aI301868534
aI256610982
aI283529665
aI923693492
aI270361111
aI435819818
aI525319244
aI827120832
aI1362860359
aI927428652
aI832121377
aI879917970
aI1976219270
aI1700157403
aI776196582
aI1812483194
aI1013010722
aI541620828
aI162511173
aI1552803962
aI516702343
aI135617852
aI2218046156
aI1688196656
aI1341578353
aI754675910
aI417843177
aI97523390
aI785917309
aI241483505
aI225952213
aI115474937
aI251589479
aI69227791
aI598737794
aI370222457
aI306317057
aI271629415
aI311408544
aI463036444
aI267269567
aI917604356
aI417358279
aI955384549
aI1817843892
aI1624048105
aI619946949
aI434432152
aI146106296
aI97660061
aI1566261738
aI562726340
aI1821420756
aI560367359
aI516771953
aI480353051
aI1426022593
aI39356994
aI1385348016
aI484062642
aI1625440826
aI251061515
aI332131164
aI2172277596
aI444137712
aI2198613368
aI1546392068
aI349259745
aI143144612
aI1281142976
aI1046243988
aI1063580893
aI1506568848
aI464515629
aI189817004
aI955384549
aI628511566
aI1895182891
aI1039845571
aI1722900456
aI536374288
aI470391175
aI231430187
aI2172231532
aI364145808
aI1107309348
aI307879207
aI199886432
aI429962243
aI311343837
aI418050160
aI314508444
aI246372356
aI821729436
aI1076394487
aI856584486
aI1583540917
aI90946310
aI278433934
aI320960101
aI803099810
aI412199931
aI582185202
aI2230836844
aI473892456
aI231130935
aI74904412
aI1901280708
aI256727466
aI1855293938
aI810583807
aI475894250
aI236549942
aI82530518
aI430803936
aI1858235504
aI561482646
aI966482431
aI1583624851
aI363192560
aI704810100
aI591892384
aI459515998
aI2170878995
aI358891750
aI1356481117
aI585721759
aI122309729
aI254069751
aI377047758
aI191018748
aI323730538
aI114880615
aI1310074819
aI1347413534
aI554523059
aI808715340
aI2172909205
aI431136654
aI1523276102
aI350837869
aI408674486
aI535580221
aI459515998
aI541074345
aI619183801
aI218230773
aI855308119
aI1032741420
aI378750785
aI381595486
aI364304119
aI590985460
aI268348660
aI39289610
aI531313037
aI87792451
aI2245553912
aI524505464
aI396228490
aI93690629
aI1398137102
aI85600820
aI133445113
aI339770779
aI222527148
aI1594232071
aI752303336
aI1458687907
aI360005912
aI408519606
aI328662649
aI932724384
aI1227797138
aI1316773712
aI945738776
aI1440536184
aI288513282
aI866486742
aI423317349
aI300168222
aI1946042972
aI267156535
aI302233637
aI315836435
aI1442500392
aI381683065
aI1431597260
aI1430944070
aI1653774666
aI1861515883
aI590226096
aI2215986902
aI312782133
aI1218258996
aI53697555
aI401495432
aI356400393
aI475915652
aI521559256
aI1268506933
aI266415866
aI124481401
aI866936821
aI115512474
aI84184793
aI2159601728
aI382611817
aI224010665
aI210488791
aI85680519
aI1271367986
aI203674828
aI2196154930
aI821090264
aI278010688
aI1704952304
aI1643961475
aI6305462
aI244068527
aI306478446
aI186255709
aI468806670
aI158489733
aI141160059
aI777706669
aI492585616
aI914402370
aI1008968916
aI751691478
aI353817163
aI361284700
aI1612474578
aI221782724
aI222189121
aI87327779
aI1673883829
aI35767916
aI482663720
aI485695115
aI257618318
aI9881632
aI1603194894
aI2234017948
aI2234416805
aI154708897
aI388403694
aI1366808178
aI259534785
aI962330785
aI1255431668
aI1250025414
aI1202318011
aI366786058
aI1367255394
aI2191139604
aI1686100002
aI985510464
aI264941441
aI401335441
aI237924061
aI1385008940
aI2183232208
aI34360917
aI14398617
aI187503192
aI1215489218
aI326053533
aI319875014
aI1723993801
aI165244209
aI80132504
aI843112446
aI270078064
aI2201295703
aI2184530870
aI2174676751
aI226745433
aI262263965
aI63762757
aI171682894
aI1684218134
aI40629476
aI250117831
aI166354862
aI257393299
aI165901507
aI1077897576
aI2218629931
aI964651260
aI896960118
aI271327993
aI468822412
aI886770139
aI257543836
aI412302167
aI360775438
aI1678343479
aI1864637101
aI470573792
aI529269301
aI1046243988
aI1088649367
aI1976219270
aI1033865318
aI1341980773
aI303350121
aI557847281
aI974084695
aI774511681
aI517977919
aI508105707
aI2191056612
aI754675910
aI191636724
aI303302982
aI143491428
aI447225706
aI1039696081
aI123532177
aI384378172
aI541620828
aI211892057
aI942021192
aI715273532
aI110557285
aI383848470
aI154590211
aI1323388544
aI2250894810
aI286566052
aI765859596
aI1515176460
aI495798905
aI1852683396
aI169963150
aI543568100
aI367189599
aI346242439
aI1423420668
aI720744820
aI1249902326
aI539951510
aI606806186
aI390781635
aI968587387
aI1460416982
aI125664992
aI437045020
aI1367531774
aI1394285407
aI154886604
aI11280042
aI1326854130
aI1252920085
aI371890940
aI51343244
aI233623879
aI176312829
aI97218685
aI1108980474
aI265827386
aI64932006
aI1115195676
aI197825799
aI147365743
aI1868613834
aI778978045
aI70405247
aI723151538
aI1313145728
aI151252689
aI357087910
aI49242579
aI2244919027
aI726907466
aI1505209796
aI329799773
aI1523152640
aI611781616
aI558164776
aI752303336
aI151675751
aI421575263
aI1089125941
aI442391784
aI812008171
aI512163238
aI77878023
aI348729610
aI856862820
aI86012461
aI17428978
aI975805530
aI1856848044
aI2224601462
aI390810125
aI1085639827
aI395951267
aI70640580
aI338302617
aI1578304914
aI129645449
aI381150451
aI361745113
aI114281616
aI428192641
aI575600034
aI66102705
aI472094447
aI428263137
aI2202158182
aI25705228
aI365683143
aI1731140456
aI1301477114
aI221149290
aI489917887
aI275023786
aI1389851726
aI599657136
aI1396847485
aI317013492
aI147324587
aI1167265735
aI413332388
aI371992885
aI370386588
aI450942260
aI88419782
aI133003471
aI504709486
aI129465862
aI168266723
aI1568156984
aI391874588
aI1946687000
aI1286749675
aI1855488524
aI928137666
aI235739900
aI1367531774
aI182515136
aI139123076
aI1407236257
aI462941985
aI439908934
aI276915726
aI951902869
aI1287904592
aI315939928
aI242081383
aI620031951
aI1649661888
aI1630193311
aI198490416
aI2244376056
aI910507302
aI108142902
aI368773326
aI2234410675
aI235995835
aI82530518
aI374506886
aI2205873717
aI2204440886
aI1053452178
aI408335816
aI150054994
aI208485410
aI1180372434
aI1651144010
aI138285583
aI374074745
aI222740457
aI561118389
aI611009500
aI365587533
aI243693308
aI130449484
aI978027044
aI269858051
aI355464109
aI937295023
aI15180395
aI281186950
aI379978230
aI76054066
aI258966774
aI381081453
aI306938642
aI291110761
aI2154517760
aI1951567483
aI395184832
aI406411017
aI997220857
aI1878735024
aI1288318830
aI446953137
aI14640553
aI1353752610
aI420446172
aI350936512
aI1416349142
aI784826756
aI1077990510
aI1028657366
aI322198821
aI1338459588
aI514212726
aI2231385865
aI1701087691
aI158812437
aI853023602
aI301458256
aI253253632
aI308107141
aI414093054
aI1176585979
aI585721759
aI229961999
aI429386716
aI235995835
aI1013686428
aI101073197
aI405067824
aI1951403768
aI309592847
aI156107434
aI1552803962
aI516702343
aI135617852
aI754556
aI2218046156
aI267377761
aI1637822006
aI625990466
aI417843177
aI19591039
aI234732326
aI987388022
aI976018357
aI1069064528
aI241483505
aI1261206968
aI2192708648
aI115474937
aI94383872
aI306317057
aI827523156
aI532067845
aI385814842
aI94563083
aI9422002
aI287780736
aI132475069
aI93046529
aI68268145
aI267268746
aI57012246
aI408674486
aI2242072285
aI884959922
aI287801422
aI430803936
aI2223593125
aI453341038
aI284079212
aI2194754991
aI369030366
aI2203075999
aI290594641
aI739209829
aI2197556100
aI278433934
aI1535421091
aI425364682
aI230696135
aI286736979
aI301458256
aI720890130
aI616217081
aI1346509242
aI497423186
aI960436603
aI466528650
aI1568726678
aI253129077
aI1586647663
aI1281043951
aI1631426299
aI1020615559
aI1632281497
aI2213177803
aI2177705900
aI310415566
aI252525817
aI1685425308
aI564595075
aI225764935
aI1472996461
aI251780166
aI266741396
aI246871225
aI491508333
aI903516733
aI460679602
aI1620941408
aI850758654
aI2243706510
aI2195744371
aI354295466
aI1685332088
aI1197140472
aI505830478
aI1444345974
aI1329693714
aI58270469
aI379321724
aI289042874
aI525818419
aI186247747
aI1098993462
aI1621536103
aI978000524
aI245913697
aI399263405
aI14398046
aI121245745
aI130132331
aI616386366
aI1205085486
aI47718025
aI283976707
aI587776656
aI195876945
aI571212471
aI1899298434
aI1879519165
aI471009458
aI60721520
aI150183910
aI39463261
aI2152541320
aI297061765
aI2198486733
aI408481179
aI2184377770
aI945713918
aI553636520
aI95475632
aI1670979828
aI405459896
aI438379556
aI418529710
aI1403331434
aI2190610435
aI930077750
aI1104445208
aI312661405
aI249253600
aI130174891
aI334556333
aI11904362
aI64728766
aI1022412691
aI17617767
aI1585121389
aI1562611986
aI2186779662
aI184734558
aI257927672
aI415854084
aI2171376232
aI575231796
aI81361075
aI194533455
aI231042456
aI1603823538
aI617016170
aI1934904780
aI1435449973
aI110959891
aI42697901
aI31382600
aI1220918929
aI1229730522
aI358217316
aI536857209
aI1618118600
aI1299927211
aI1398338353
aI1506009378
aI50010937
aI98123829
aI162896468
aI917001709
aI116100372
aI80765331
aI106635224
aI293716922
aI296961965
aI508990059
aI2249050285
aI2223018763
aI1733143693
aI161325139
aI2253423211
aI384681205
aI2227180382
aI1126273520
aI2238320924
aI45610523
aI2211902350
aI1711961917
aI2154517760
aI1443907454
aI524589593
aI619183801
aI1951567483
aI395184832
aI1258084026
aI1181424648
aI1878735024
aI43299161
aI137763526
aI1421161855
aI536568247
aI721138560
aI1353752610
aI1563059568
aI420446172
aI350936512
aI965954834
aI2244005473
aI1684510362
aI844183753
aI1895271614
aI616793589
aI47033707
aI339438709
aI256569032
aI187783287
aI1001333580
aI943686618
aI519765863
aI120857921
aI35527196
aI30772439
aI225132118
aI123990310
aI581085635
aI634164921
aI384681205
aI264784320
aI2191196984
aI2176070958
aI383824275
aI219266156
aI1092495480
aI306885842
aI378155170
aI248786008
aI105790986
aI351039330
aI558524875
aI991942255
aI222184943
aI1582751060
aI800490260
aI471009458
aI1667744054
aI12647572
aI1031136870
aI253253632
aI926028265
aI274470163
aI284079212
aI236782850
aI626258986
aI249412090
aI256665996
aI2216421377
aI1654222704
aI28342798
aI444645780
aI315950502
aI1676735180
aI529517990
aI875344561
aI1615120267
aI233279908
aI211543260
aI1012569240
aI212396722
aI132947303
aI1279153897
aI1563960097
aI2216338439
aI239581710
aI56957358
aI2228299783
aI1031363545
aI853857024
aI250289596
aI332066218
aI395184832
aI92742362
aI308498984
aI10409262
aI2204607019
aI361842250
aI216301284
aI32693404
aI635034807
aI945738776
aI105228855
aI222704593
aI1293540596
aI1560743706
aI355294956
aI542782091
aI294392520
aI471614045
aI833480990
aI1684856539
aI1862187618
aI569802076
aI1123365350
aI223820515
aI129808408
aI1250109810
aI551455785
aI2171179728
aI368579714
aI206213010
aI409938923
aI95061659
aI266884859
aI237218746
aI135348838
aI399085593
aI2190562942
aI9404782
aI914402370
aI187462180
aI1163698284
aI202138458
aI1620213630
aI126026892
aI88422050
aI1974248299
aI136673629
aI1630239456
aI1423610510
aI525654962
aI349926226
aI531829330
aI551973614
aI1560005474
aI619987314
aI568977528
aI215838485
aI486054549
aI819917605
aI237060952
aI460224236
aI422328222
aI396313619
aI195320358
aI431985339
aI1283091300
aI188880895
aI370269188
aI553834002
aI180108503
aI984749724
aI278630481
aI542948025
aI106914947
aI441100087
aI2188535792
aI87702289
aI234086670
aI105396948
aI433485402
aI1942809326
aI1336893612
aI1951684039
aI244950365
aI514376016
aI132364050
aI606493500
aI253279366
aI268215455
aI265502266
aI531608498
aI89568512
aI2226937878
aI627134680
aI964479944
aI952188505
aI499071309
aI946989295
aI2233287482
aI1373844114
aI868859646
aI2234395506
aI1083124812
aI1947903606
aI1669313696
aI2153223790
aI2211075011
aI2148548725
aI1408629620
aI150864625
aI129618856
aI299815800
aI1171472346
aI869815326
aI215119502
aI27800134
aI289909064
aI1386674648
aI159107265
aI476628696
aI490279998
aI2226663612
aI355060778
aI1371895837
aI2156898587
aI287610605
aI1697083993
aI1147019358
aI1887613896
aI752193061
aI276098095
aI2158968453
aI374687687
aI324593639
aI633007534
aI564168002
aI958702398
aI1126672496
aI2201474504
aI1276203380
aI1534988142
aI762474607
aI950239598
aI475152236
aI236754941
aI218499746
aI1048747592
aI606283371
aI379159159
aI144843498
aI558160675
aI335880267
aI285327102
aI235535781
aI2248799539
aI203844472
aI142306639
aI96203428
aI1858929313
aI68695059
aI558842042
aI1269855192
aI267900319
aI1598649182
aI206679080
aI703519884
aI1425743358
aI219317739
aI1280996304
aI1926919278
aI281949041
aI198829021
aI2231533357
aI50552673
aI276895169
aI1659826999
aI254007494
aI342162078
aI17540058
aI468812817
aI2189018209
aI150512373
aI1936339795
aI1388377142
aI163482270
aI998176802
aI1614188064
aI459514029
aI529341431
aI104424708
aI247000131
aI89202162
aI377464137
aI383124287
aI94065813
aI96637311
aI308102896
aI349679377
aI112147738
aI364145808
aI1224950690
aI27758688
aI268490625
aI759211358
aI1087432710
aI206903279
aI715579207
aI1608566718
aI2250124490
aI1098599514
aI1873403192
aI90070720
aI948555234
aI184627730
aI394788210
aI296983299
aI380069552
aI602687573
aI589826031
aI67282005
aI987684414
aI308944502
aI130620910
aI1150331714
aI27984290
aI306214163
aI576555512
aI505024858
aI18394047
aI241168317
aI520392560
aI500316788
aI1068349178
aI461281021
aI255494452
aI2174397329
aI22146317
aI2197590769
aI960744302
aI220162178
aI103279981
aI1513398895
aI1206260779
aI1043214200
aI467569888
aI622015859
aI285729584
aI946599558
aI1585201680
aI1858681706
aI1362248462
aI408715311
aI2155501645
aI955384549
aI388412770
aI283490174
aI803204275
aI247410313
aI293138320
aI932944429
aI235995835
aI848488094
aI453974434
aI1850741545
aI2200433154
aI1935595968
aI89202162
aI347657667
aI271973260
aI232925808
aI1006819819
aI2205385044
aI343114371
aI2166434786
aI1035990410
aI768329684
aI1448908764
aI180003633
aI195685789
aI1214059992
aI369589297
aI868881912
aI2159917502
aI243747058
aI817816106
aI55729274
aI111698793
aI1630239456
aI96692944
aI361925497
aI165084249
aI374294975
aI323944058
aI432863156
aI1620541488
aI1678517329
aI168712053
aI1337370054
aI1485535974
aI903632474
aI1884122240
aI968593026
aI270282889
aI911623032
aI860279228
aI2178389101
aI2210390447
aI106061512
aI1139329950
aI47718025
aI2201688979
aI410773407
aI131637654
aI2151706568
aI1218258996
aI975930674
aI2248498536
aI163444277
aI97402053
aI267218001
aI278868596
aI2247695946
aI1712196408
aI960676122
aI827038008
aI358883115
aI2159356184
aI798404642
aI1485691310
aI111354854
aI73379502
aI812095579
aI229343167
aI1104445208
aI300135299
aI155285281
aI21361705
aI263819335
aI422466664
aI312782133
aI103243936
aI21447180
aI256472950
aI1275324697
aI1617884742
aI329567610
aI323285392
aI1157857682
aI1351938654
aI880341475
aI826800943
aI122321939
aI119043111
aI467813313
aI325149297
aI2228836498
aI774309200
aI882332448
aI538499452
aI1076226115
aI1397530476
aI1627689103
aI1295607494
aI1139622908
aI619163115
aI406325294
aI1147439102
aI1316389518
aI335173739
aI596526114
aI751194416
aI446504392
aI181171727
aI186831462
aI1057855022
aI1929892038
aI635565412
aI613864051
aI260151394
aI783041755
aI2205629884
aI421172618
aI272947060
aI1556356021
aI2202938214
aI1719845898
aI485030228
aI1617502532
aI287005849
aI2253070765
aI414296389
aI400179226
aI19346335
aI267522827
aI1260451476
aI2252588893
aI2232806395
aI395440718
aI165489209
aI440219590
aI2184616611
aI1110222566
aI230696135
aI1853524352
aI2189929876
aI1487675010
aI1970678040
aI119111956
aI436837074
aI434411738
aI742756681
aI916245336
aI1153112732
aI498866832
aI1326754585
aI294794257
aI711277250
aI554512619
aI291300373
aI236746684
aI474082843
aI245927774
aI246413056
aI300958161
aI327013901
aI288964775
aI308107141
aI287770758
aI282293717
aI381981720
aI442950932
aI1095810247
aI1446377486
aI907695186
aI1098881096
aI414345899
aI264732419
aI1042295953
aI1907884322
aI1953635401
aI330452284
aI139481894
aI1477676670
aI139486627
aI576151100
aI2234017948
aI751621838
aI1857674034
aI2218502136
aI927774121
aI2247725028
aI393286772
aI1480247436
aI2219550328
aI211130100
aI20897273
aI1469273696
aI1315114254
aI2197843146
aI402993568
aI865866481
aI293608717
aI57921144
aI511682800
aI2155845279
aI402884046
aI2148735885
aI545375191
aI1023519896
aI847141615
aI2232420418
aI975980275
aI1525950114
aI1900835514
aI1664733710
aI545151424
aI71675767
aI841949107
aI625614323
aI1878895496
aI1665649572
aI1608566718
aI357990637
aI1430965014
aI2165392686
aI533231026
aI141586504
aI183253929
aI853443355
aI2192418524
aI904335451
aI524386536
aI620293540
aI1403614657
aI2241684818
aI469425552
aI1484355518
aI1436637380
aI76050987
aI1596080102
aI2254775491
aI2176812329
aI2219859629
aI446555480
aI201303742
aI222457323
aI704735030
aI1626728654
aI264333291
aI46967863
aI1736246269
aI26068710
aI17414051
aI573678444
aI286510647
aI888976470
aI796041842
aI1518882546
aI1545908618
aI2200130502
aI1489893308
aI382852126
aI1443907454
aI1781193487
aI917763494
aI524589593
aI120036324
aI395184832
aI1258084026
aI1181424648
aI997220857
aI29251199
aI391222585
aI1421161855
aI1523152640
aI18882085
aI25661574
aI965954834
aI406968056
aI359613065
aI713302057
aI2202441998
aI172499545
aI275798534
aI305963139
aI592057601
aI2153786864
aI229961999
aI385465425
aI20913533
aI183566680
aI361505421
aI837135392
aI152355311
aI424591710
aI1029234102
aI857459713
aI852219709
aI1290809185
aI1198695661
aI469851064
aI1871807270
aI1467077084
aI2222431242
aI38719544
aI1606729472
aI2223936098
aI469001662
aI2208946563
aI721148714
aI558862680
aI2159607118
aI2247695946
aI1660533619
aI1392434556
aI1531915441
aI488282217
aI2205921728
aI1037265500
aI599371100
aI902995676
aI1402670959
aI1895305141
aI351376952
aI637145064
aI349259745
aI1603499161
aI339719867
aI419008875
aI216121219
aI253903439
aI111595856
aI359427217
aI244276530
aI232968006
aI289920619
aI1144961635
aI132475069
aI1076226115
aI521511347
aI1627689103
aI1295607494
aI619163115
aI2181845595
aI1147439102
aI455308731
aI1604188188
aI446504392
aI390694258
aI703814991
aI1853992484
aI519803454
aI570907077
aI546188347
aI299142650
aI300572452
aI2205012817
aI19410999
aI516415346
aI1145649703
aI1253931494
aI827120832
aI312181000
aI230669998
aI1377267114
aI591134562
aI18295162
aI110498125
aI347107329
aI197049968
aI1624957778
aI867616376
aI487846005
aI2207558705
aI242514929
aI2216523319
aI1566558726
aI402797529
aI169974409
aI176580464
aI296981644
aI2148689880
aI582185202
aI596779580
aI462086480
aI886420404
aI107538795
aI291950943
aI68419881
aI115077998
aI243213219
aI315538623
aI343360631
aI45813418
aI1581175722
aI529144201
aI239186984
aI1367739360
aI1576043922
aI49683632
aI460480882
aI2248992894
aI270965769
aI2169261091
aI1470479282
aI1201448816
aI369424483
aI598721065
aI2156898587
aI873714290
aI625847387
aI1879352060
aI549973400
aI139748229
aI279498767
aI824659850
aI288357660
aI763577293
aI1063352772
aI1470613350
aI2195085812
aI1114283257
aI108356230
aI184446647
aI826010989
aI13929812
aI520718767
aI19016672
aI272272141
aI1619858852
aI401495432
aI1384474980
aI736362829
aI636367140
aI181609737
aI235995835
aI703965486
aI371816206
aI1020615559
aI570967933
aI407259050
aI153867616
aI1400203249
aI12273062
aI206307365
aI24947884
aI216014472
aI631441738
aI99984462
aI607346190
aI831859164
aI1182963192
aI32304785
aI913301898
aI621920393
aI105967943
aI195773954
aI358250839
aI198203489
aI513379411
aI2207266316
aI322120538
aI266380995
aI422926675
aI551645145
aI1410255535
aI1134263948
aI183846778
aI63537596
aI581135533
aI1676825430
aI1607545274
aI32800286
aI403378248
aI1674155887
aI2228390966
aI1290828596
aI293627746
aI2203670040
aI2238250465
aI405828366
aI976115239
aI974479172
aI7611852
aI27397390
aI90363371
aI520753691
aI1327348261
aI1255016940
aI841418732
aI6105202
aI1326537967
aI852301178
aI247461945
aI971144808
aI122309729
aI139481894
aI268958249
aI1926719532
aI626676939
aI305540133
aI1524590167
aI508809396
aI1001389368
aI1885875673
aI540001133
aI1515717913
aI182178094
aI1460037890
aI217413598
aI1593602521
aI2243368526
aI1210203030
aI1614903318
aI919662822
aI1861199443
aI487964652
aI2163114437
aI1580005826
aI1970859252
aI1126146068
aI717966148
aI2169247591
aI2238039824
aI229438766
aI270428519
aI140195543
aI2239617709
aI2237008939
aI2247910616
aI1207804015
aI588276832
aI2212891495
aI300055633
aI1048915568
aI278129958
aI178010946
aI1035990410
aI1613543294
aI2248490383
aI1167163494
aI45610523
aI931615082
aI754675910
aI1632663558
aI391264779
aI405465140
aI331920529
aI383824275
aI1444345974
aI2179593905
aI980684000
aI2155013426
aI107762111
a.